target datalayout = "e-m:e-p270:32:32-p271:32:32-p272:64:64-i64:64-i128:128-f80:128-n8:16:32:64-S128"
target triple = "x86_64-pc-linux-gnu"

%struct.Vec_Ptr_t_ = type { i32, i32, ptr }
%struct.Vec_Int_t_ = type { i32, i32, ptr }
%struct.Abc_Ntk_t_ = type { i32, i32, ptr, ptr, ptr, ptr, ptr, ptr, ptr, ptr, ptr, ptr, ptr, [11 x i32], i32, i32, i32, i32, ptr, i32, ptr, ptr, i32, i32, i32, double, i32, %struct.Vec_Int_t_, ptr, ptr, ptr, ptr, ptr, float, i32, ptr, ptr, ptr, ptr, ptr, ptr, ptr, ptr, ptr, ptr, ptr, ptr, ptr, ptr, ptr, ptr, ptr, ptr, ptr, ptr, ptr, ptr }
%struct.Abc_Obj_t_ = type { ptr, ptr, i32, i32, %struct.Vec_Int_t_, %struct.Vec_Int_t_, %union.anon, %union.anon.0 }
%union.anon = type { ptr }
%union.anon.0 = type { ptr }

; Function Attrs: inlinehint nounwind uwtable
define internal ptr @Vec_PtrEntry(ptr noundef %0, i32 noundef %1) #5 {
  %3 = alloca ptr, align 8
  %4 = alloca i32, align 4
  store ptr %0, ptr %3, align 8, !tbaa !96
  store i32 %1, ptr %4, align 4, !tbaa !79
  %5 = load ptr, ptr %3, align 8, !tbaa !96
  %6 = getelementptr inbounds nuw %struct.Vec_Ptr_t_, ptr %5, i32 0, i32 2
  %7 = load ptr, ptr %6, align 8, !tbaa !113
  %8 = load i32, ptr %4, align 4, !tbaa !79
  %9 = sext i32 %8 to i64
  %10 = getelementptr inbounds ptr, ptr %7, i64 %9
  %11 = load ptr, ptr %10, align 8, !tbaa !133
  ret ptr %11
}

; Function Attrs: inlinehint nounwind uwtable
define internal ptr @Abc_NtkObj(ptr noundef %0, i32 noundef %1) #5 {
  %3 = alloca ptr, align 8
  %4 = alloca i32, align 4
  store ptr %0, ptr %3, align 8, !tbaa !31
  store i32 %1, ptr %4, align 4, !tbaa !79
  %5 = load ptr, ptr %3, align 8, !tbaa !31
  %6 = getelementptr inbounds nuw %struct.Abc_Ntk_t_, ptr %5, i32 0, i32 5
  %7 = load ptr, ptr %6, align 8, !tbaa !91
  %8 = load i32, ptr %4, align 4, !tbaa !79
  %9 = call ptr @Vec_PtrEntry(ptr noundef %7, i32 noundef %8)
  ret ptr %9
}

; Function Attrs: inlinehint nounwind uwtable
define internal i32 @Vec_IntEntry(ptr noundef %0, i32 noundef %1) #5 {
  %3 = alloca ptr, align 8
  %4 = alloca i32, align 4
  store ptr %0, ptr %3, align 8, !tbaa !98
  store i32 %1, ptr %4, align 4, !tbaa !79
  %5 = load ptr, ptr %3, align 8, !tbaa !98
  %6 = getelementptr inbounds nuw %struct.Vec_Int_t_, ptr %5, i32 0, i32 2
  %7 = load ptr, ptr %6, align 8, !tbaa !99
  %8 = load i32, ptr %4, align 4, !tbaa !79
  %9 = sext i32 %8 to i64
  %10 = getelementptr inbounds i32, ptr %7, i64 %9
  %11 = load i32, ptr %10, align 4, !tbaa !79
  ret i32 %11
}

; Function Attrs: inlinehint nounwind uwtable
define internal i32 @Vec_IntSize(ptr noundef %0) #5 {
  %2 = alloca ptr, align 8
  store ptr %0, ptr %2, align 8, !tbaa !98
  %3 = load ptr, ptr %2, align 8, !tbaa !98
  %4 = getelementptr inbounds nuw %struct.Vec_Int_t_, ptr %3, i32 0, i32 1
  %5 = load i32, ptr %4, align 4, !tbaa !100
  ret i32 %5
}

; Function Attrs: inlinehint nounwind uwtable
define internal void @Vec_IntClear(ptr noundef %0) #5 {
  %2 = alloca ptr, align 8
  store ptr %0, ptr %2, align 8, !tbaa !98
  %3 = load ptr, ptr %2, align 8, !tbaa !98
  %4 = getelementptr inbounds nuw %struct.Vec_Int_t_, ptr %3, i32 0, i32 1
  store i32 0, ptr %4, align 4, !tbaa !100
  ret void
}

; Function Attrs: nounwind uwtable
define i32 @Sfm_DecMffcAreaReal(ptr noundef %0, ptr noundef %1, ptr noundef %2) #0 {
  %4 = alloca ptr, align 8
  %5 = alloca ptr, align 8
  %6 = alloca ptr, align 8
  %7 = alloca ptr, align 8
  %8 = alloca ptr, align 8
  %9 = alloca i32, align 4
  %10 = alloca i32, align 4
  %11 = alloca i32, align 4
  store ptr %0, ptr %4, align 8, !tbaa !92
  store ptr %1, ptr %5, align 8, !tbaa !98
  store ptr %2, ptr %6, align 8, !tbaa !98
  call void @llvm.lifetime.start.p0(i64 8, ptr %7) #12
  %12 = load ptr, ptr %4, align 8, !tbaa !92
  %13 = getelementptr inbounds nuw %struct.Abc_Obj_t_, ptr %12, i32 0, i32 0
  %14 = load ptr, ptr %13, align 8, !tbaa !147
  store ptr %14, ptr %7, align 8, !tbaa !31
  call void @llvm.lifetime.start.p0(i64 8, ptr %8) #12
  call void @llvm.lifetime.start.p0(i64 4, ptr %9) #12
  call void @llvm.lifetime.start.p0(i64 4, ptr %10) #12
  call void @llvm.lifetime.start.p0(i64 4, ptr %11) #12
  %15 = load ptr, ptr %6, align 8, !tbaa !98
  %16 = icmp ne ptr %15, null
  br i1 %16, label %17, label %19

17:                                               ; preds = %3
  %18 = load ptr, ptr %6, align 8, !tbaa !98
  call void @Vec_IntClear(ptr noundef %18)
  br label %19

19:                                               ; preds = %17, %3
  store i32 0, ptr %9, align 4, !tbaa !79
  br label %20

20:                                               ; preds = %44, %19
  %21 = load i32, ptr %9, align 4, !tbaa !79
  %22 = load ptr, ptr %5, align 8, !tbaa !98
  %23 = call i32 @Vec_IntSize(ptr noundef %22)
  %24 = icmp slt i32 %21, %23
  br i1 %24, label %25, label %31

25:                                               ; preds = %20
  %26 = load ptr, ptr %7, align 8, !tbaa !31
  %27 = load ptr, ptr %5, align 8, !tbaa !98
  %28 = load i32, ptr %9, align 4, !tbaa !79
  %29 = call i32 @Vec_IntEntry(ptr noundef %27, i32 noundef %28)
  %30 = call ptr @Abc_NtkObj(ptr noundef %26, i32 noundef %29)
  store ptr %30, ptr %8, align 8, !tbaa !92
  br label %31

31:                                               ; preds = %25, %20
  %32 = phi i1 [ false, %20 ], [ true, %25 ]
  br i1 %32, label %33, label %47

33:                                               ; preds = %31
  %34 = load ptr, ptr %8, align 8, !tbaa !92
  %35 = icmp eq ptr %34, null
  br i1 %35, label %36, label %37

36:                                               ; preds = %33
  br label %43

37:                                               ; preds = %33
  %38 = load ptr, ptr %8, align 8, !tbaa !92
  %39 = getelementptr inbounds nuw %struct.Abc_Obj_t_, ptr %38, i32 0, i32 5
  %40 = getelementptr inbounds nuw %struct.Vec_Int_t_, ptr %39, i32 0, i32 1
  %41 = load i32, ptr %40, align 4, !tbaa !143
  %42 = add nsw i32 %41, 1
  store i32 %42, ptr %40, align 4, !tbaa !143
  br label %43

43:                                               ; preds = %37, %36
  br label %44

44:                                               ; preds = %43
  %45 = load i32, ptr %9, align 4, !tbaa !79
  %46 = add nsw i32 %45, 1
  store i32 %46, ptr %9, align 4, !tbaa !79
  br label %20, !llvm.loop !151

47:                                               ; preds = %31
  %48 = load ptr, ptr %4, align 8, !tbaa !92
  %49 = call i32 @Sfm_MffcDeref_rec(ptr noundef %48)
  store i32 %49, ptr %10, align 4, !tbaa !79
  %50 = load ptr, ptr %4, align 8, !tbaa !92
  %51 = load ptr, ptr %6, align 8, !tbaa !98
  %52 = call i32 @Sfm_MffcRef_rec(ptr noundef %50, ptr noundef %51)
  store i32 %52, ptr %11, align 4, !tbaa !79
  store i32 0, ptr %9, align 4, !tbaa !79
  br label %53

53:                                               ; preds = %77, %47
  %54 = load i32, ptr %9, align 4, !tbaa !79
  %55 = load ptr, ptr %5, align 8, !tbaa !98
  %56 = call i32 @Vec_IntSize(ptr noundef %55)
  %57 = icmp slt i32 %54, %56
  br i1 %57, label %58, label %64

58:                                               ; preds = %53
  %59 = load ptr, ptr %7, align 8, !tbaa !31
  %60 = load ptr, ptr %5, align 8, !tbaa !98
  %61 = load i32, ptr %9, align 4, !tbaa !79
  %62 = call i32 @Vec_IntEntry(ptr noundef %60, i32 noundef %61)
  %63 = call ptr @Abc_NtkObj(ptr noundef %59, i32 noundef %62)
  store ptr %63, ptr %8, align 8, !tbaa !92
  br label %64

64:                                               ; preds = %58, %53
  %65 = phi i1 [ false, %53 ], [ true, %58 ]
  br i1 %65, label %66, label %80

66:                                               ; preds = %64
  %67 = load ptr, ptr %8, align 8, !tbaa !92
  %68 = icmp eq ptr %67, null
  br i1 %68, label %69, label %70

69:                                               ; preds = %66
  br label %76

70:                                               ; preds = %66
  %71 = load ptr, ptr %8, align 8, !tbaa !92
  %72 = getelementptr inbounds nuw %struct.Abc_Obj_t_, ptr %71, i32 0, i32 5
  %73 = getelementptr inbounds nuw %struct.Vec_Int_t_, ptr %72, i32 0, i32 1
  %74 = load i32, ptr %73, align 4, !tbaa !143
  %75 = add nsw i32 %74, -1
  store i32 %75, ptr %73, align 4, !tbaa !143
  br label %76

76:                                               ; preds = %70, %69
  br label %77

77:                                               ; preds = %76
  %78 = load i32, ptr %9, align 4, !tbaa !79
  %79 = add nsw i32 %78, 1
  store i32 %79, ptr %9, align 4, !tbaa !79
  br label %53, !llvm.loop !152

80:                                               ; preds = %64
  %81 = load i32, ptr %10, align 4, !tbaa !79
  call void @llvm.lifetime.end.p0(i64 4, ptr %11) #12
  call void @llvm.lifetime.end.p0(i64 4, ptr %10) #12
  call void @llvm.lifetime.end.p0(i64 4, ptr %9) #12
  call void @llvm.lifetime.end.p0(i64 8, ptr %8) #12
  call void @llvm.lifetime.end.p0(i64 8, ptr %7) #12
  ret i32 %81
}