; Function Attrs: nounwind uwtable
define i32 @Sfm_DecMffcAreaReal(ptr noundef readonly captures(none) %0, ptr noundef readonly captures(none) %1, ptr noundef %2) local_unnamed_addr #2 {
  %4 = load ptr, ptr %0, align 8, !tbaa !124
  %.not = icmp eq ptr %2, null
  br i1 %.not, label %7, label %5

5:                                                ; preds = %3
  %6 = getelementptr inbounds nuw i8, ptr %2, i64 4
  store i32 0, ptr %6, align 4, !tbaa !85
  br label %7

7:                                                ; preds = %5, %3
  %8 = getelementptr i8, ptr %1, i64 4
  %.val2932 = load i32, ptr %8, align 4, !tbaa !85
  %9 = icmp sgt i32 %.val2932, 0
  br i1 %9, label %.lr.ph, label %.critedge

.lr.ph:                                           ; preds = %7
  %10 = getelementptr i8, ptr %1, i64 8
  %.val31 = load ptr, ptr %10, align 8, !tbaa !84
  %11 = getelementptr i8, ptr %4, i64 32
  %.val27 = load ptr, ptr %11, align 8, !tbaa !78
  %12 = getelementptr i8, ptr %.val27, i64 8
  %.val27.val = load ptr, ptr %12, align 8, !tbaa !80
  br label %13

13:                                               ; preds = %.lr.ph, %24
  %.val2941 = phi i32 [ %.val2932, %.lr.ph ], [ %.val29, %24 ]
  %indvars.iv = phi i64 [ 0, %.lr.ph ], [ %indvars.iv.next, %24 ]
  %14 = getelementptr inbounds nuw i32, ptr %.val31, i64 %indvars.iv
  %15 = load i32, ptr %14, align 4, !tbaa !96
  %16 = sext i32 %15 to i64
  %17 = getelementptr inbounds ptr, ptr %.val27.val, i64 %16
  %18 = load ptr, ptr %17, align 8, !tbaa !81
  %19 = icmp eq ptr %18, null
  br i1 %19, label %24, label %20

20:                                               ; preds = %13
  %21 = getelementptr inbounds nuw i8, ptr %18, i64 44
  %22 = load i32, ptr %21, align 4, !tbaa !126
  %23 = add nsw i32 %22, 1
  store i32 %23, ptr %21, align 4, !tbaa !126
  %.val29.pre = load i32, ptr %8, align 4, !tbaa !85
  br label %24

24:                                               ; preds = %20, %13
  %.val29 = phi i32 [ %.val29.pre, %20 ], [ %.val2941, %13 ]
  %indvars.iv.next = add nuw nsw i64 %indvars.iv, 1
  %25 = sext i32 %.val29 to i64
  %26 = icmp slt i64 %indvars.iv.next, %25
  br i1 %26, label %13, label %.critedge, !llvm.loop !130

.critedge:                                        ; preds = %24, %7
  %27 = tail call i32 @Sfm_MffcDeref_rec(ptr noundef nonnull %0)
  %28 = tail call i32 @Sfm_MffcRef_rec(ptr noundef nonnull %0, ptr noundef %2)
  %.val2834 = load i32, ptr %8, align 4, !tbaa !85
  %29 = icmp sgt i32 %.val2834, 0
  br i1 %29, label %.lr.ph36, label %.critedge2

.lr.ph36:                                         ; preds = %.critedge
  %30 = getelementptr i8, ptr %1, i64 8
  %.val30 = load ptr, ptr %30, align 8, !tbaa !84
  %31 = getelementptr i8, ptr %4, i64 32
  %.val = load ptr, ptr %31, align 8, !tbaa !78
  %32 = getelementptr i8, ptr %.val, i64 8
  %.val.val = load ptr, ptr %32, align 8, !tbaa !80
  br label %33

33:                                               ; preds = %.lr.ph36, %44
  %.val2843 = phi i32 [ %.val2834, %.lr.ph36 ], [ %.val28, %44 ]
  %indvars.iv38 = phi i64 [ 0, %.lr.ph36 ], [ %indvars.iv.next39, %44 ]
  %34 = getelementptr inbounds nuw i32, ptr %.val30, i64 %indvars.iv38
  %35 = load i32, ptr %34, align 4, !tbaa !96
  %36 = sext i32 %35 to i64
  %37 = getelementptr inbounds ptr, ptr %.val.val, i64 %36
  %38 = load ptr, ptr %37, align 8, !tbaa !81
  %39 = icmp eq ptr %38, null
  br i1 %39, label %44, label %40

40:                                               ; preds = %33
  %41 = getelementptr inbounds nuw i8, ptr %38, i64 44
  %42 = load i32, ptr %41, align 4, !tbaa !126
  %43 = add nsw i32 %42, -1
  store i32 %43, ptr %41, align 4, !tbaa !126
  %.val28.pre = load i32, ptr %8, align 4, !tbaa !85
  br label %44

44:                                               ; preds = %40, %33
  %.val28 = phi i32 [ %.val28.pre, %40 ], [ %.val2843, %33 ]
  %indvars.iv.next39 = add nuw nsw i64 %indvars.iv38, 1
  %45 = sext i32 %.val28 to i64
  %46 = icmp slt i64 %indvars.iv.next39, %45
  br i1 %46, label %33, label %.critedge2, !llvm.loop !131

.critedge2:                                       ; preds = %44, %.critedge
  ret i32 %27
}